; Function Attrs: mustprogress uwtable
define void @_ZN32pxrInternal_v0_24__pxrReserved__32TraceReporterDataSourceCollectorC2Ev(ptr noundef nonnull align 8 dereferenceable(64) initializes((0, 48), (56, 64)) %0) unnamed_addr #0 align 2 personality ptr @__gxx_personality_v0 {
  %2 = alloca %"class.std::function", align 8
  %3 = getelementptr inbounds nuw i8, ptr %2, i64 16
  %4 = getelementptr inbounds nuw i8, ptr %2, i64 24
  %5 = getelementptr inbounds nuw i8, ptr %2, i64 8
  store i64 0, ptr %5, align 8
  store ptr @_ZN32pxrInternal_v0_24__pxrReserved__L13_AlwaysAcceptEv, ptr %2, align 8
  store ptr @_ZNSt17_Function_handlerIFbvEPS0_E9_M_invokeERKSt9_Any_data, ptr %4, align 8
  store ptr @_ZNSt17_Function_handlerIFbvEPS0_E10_M_managerERSt9_Any_dataRKS3_St18_Manager_operation, ptr %3, align 8
  invoke void @_ZN32pxrInternal_v0_24__pxrReserved__32TraceReporterDataSourceCollectorC2ESt8functionIFbvEE(ptr noundef nonnull align 8 dereferenceable(64) %0, ptr noundef nonnull %2)
          to label %6 unwind label %13

6:                                                ; preds = %1
  %7 = load ptr, ptr %3, align 8
  %.not.i.i = icmp eq ptr %7, null
  br i1 %.not.i.i, label %_ZNSt8functionIFbvEED2Ev.exit, label %8

8:                                                ; preds = %6
  %9 = invoke noundef zeroext i1 %7(ptr noundef nonnull align 8 dereferenceable(32) %2, ptr noundef nonnull align 8 dereferenceable(32) %2, i32 noundef 3)
          to label %_ZNSt8functionIFbvEED2Ev.exit unwind label %10

10:                                               ; preds = %8
  %11 = landingpad { ptr, i32 }
          catch ptr null
  %12 = extractvalue { ptr, i32 } %11, 0
  call void @__clang_call_terminate(ptr %12) #17
  unreachable

_ZNSt8functionIFbvEED2Ev.exit:                    ; preds = %6, %8
  ret void

13:                                               ; preds = %1
  %14 = landingpad { ptr, i32 }
          cleanup
  %15 = load ptr, ptr %3, align 8
  %.not.i.i2 = icmp eq ptr %15, null
  br i1 %.not.i.i2, label %_ZNSt8functionIFbvEED2Ev.exit3, label %16

16:                                               ; preds = %13
  %17 = invoke noundef zeroext i1 %15(ptr noundef nonnull align 8 dereferenceable(32) %2, ptr noundef nonnull align 8 dereferenceable(32) %2, i32 noundef 3)
          to label %_ZNSt8functionIFbvEED2Ev.exit3 unwind label %18

18:                                               ; preds = %16
  %19 = landingpad { ptr, i32 }
          catch ptr null
  %20 = extractvalue { ptr, i32 } %19, 0
  call void @__clang_call_terminate(ptr %20) #17
  unreachable

_ZNSt8functionIFbvEED2Ev.exit3:                   ; preds = %13, %16
  resume { ptr, i32 } %14
}